target datalayout = "e-m:e-p270:32:32-p271:32:32-p272:64:64-i64:64-i128:128-f80:128-n8:16:32:64-S128"
target triple = "x86_64-pc-linux-gnu"

%struct.__va_list_tag = type { i32, i32, ptr, ptr }
%struct.walker = type { ptr, ptr, ptr, ptr, ptr, i32, i32, i32, i32 }

@stderr = external global ptr, align 8

; Function Attrs: nounwind uwtable
define dso_local void @walker_say(ptr noundef %0, ptr noundef %1, ...) #0 {
  %3 = alloca ptr, align 8
  %4 = alloca ptr, align 8
  %5 = alloca [1 x %struct.__va_list_tag], align 16
  store ptr %0, ptr %3, align 8, !tbaa !4
  store ptr %1, ptr %4, align 8, !tbaa !9
  %6 = load ptr, ptr %3, align 8, !tbaa !4
  %7 = getelementptr inbounds nuw %struct.walker, ptr %6, i32 0, i32 5
  %8 = load i32, ptr %7, align 8, !tbaa !11
  %9 = icmp ne i32 %8, 0
  br i1 %9, label %10, label %17

10:                                               ; preds = %2
  call void @llvm.lifetime.start.p0(i64 24, ptr %5) #9
  %11 = getelementptr inbounds [1 x %struct.__va_list_tag], ptr %5, i64 0, i64 0
  call void @llvm.va_start.p0(ptr %11)
  %12 = load ptr, ptr @stderr, align 8, !tbaa !14
  %13 = load ptr, ptr %4, align 8, !tbaa !9
  %14 = getelementptr inbounds [1 x %struct.__va_list_tag], ptr %5, i64 0, i64 0
  %15 = call i32 @vfprintf(ptr noundef %12, ptr noundef %13, ptr noundef %14) #9
  %16 = getelementptr inbounds [1 x %struct.__va_list_tag], ptr %5, i64 0, i64 0
  call void @llvm.va_end.p0(ptr %16)
  call void @llvm.lifetime.end.p0(i64 24, ptr %5) #9
  br label %17

17:                                               ; preds = %10, %2
  ret void
}