; Function Attrs: nofree nounwind uwtable
define dso_local void @walker_say(ptr noundef readonly captures(none) %0, ptr noundef readonly captures(none) %1, ...) local_unnamed_addr #0 {
  %3 = alloca [1 x %struct.__va_list_tag], align 16
  %4 = getelementptr inbounds nuw i8, ptr %0, i64 40
  %5 = load i32, ptr %4, align 8, !tbaa !4
  %.not = icmp eq i32 %5, 0
  br i1 %.not, label %9, label %6

6:                                                ; preds = %2
  call void @llvm.lifetime.start.p0(i64 24, ptr nonnull %3) #13
  call void @llvm.va_start.p0(ptr nonnull %3)
  %7 = load ptr, ptr @stderr, align 8, !tbaa !10
  %8 = call i32 @vfprintf(ptr noundef %7, ptr noundef %1, ptr noundef nonnull %3) #14
  call void @llvm.va_end.p0(ptr nonnull %3)
  call void @llvm.lifetime.end.p0(i64 24, ptr nonnull %3) #13
  br label %9

9:                                                ; preds = %6, %2
  ret void
}